target datalayout = "e-m:e-p270:32:32-p271:32:32-p272:64:64-i64:64-i128:128-f80:128-n8:16:32:64-S128"
target triple = "x86_64-pc-linux-gnu"

%"class.Assimp::Q3BSPFileParser" = type { i64, %"class.std::vector", ptr, ptr }
%"class.std::vector" = type { %"struct.std::_Vector_base" }
%"struct.std::_Vector_base" = type { %"struct.std::_Vector_base<char, std::allocator<char>>::_Vector_impl" }
%"struct.std::_Vector_base<char, std::allocator<char>>::_Vector_impl" = type { %"struct.std::_Vector_base<char, std::allocator<char>>::_Vector_impl_data" }
%"struct.std::_Vector_base<char, std::allocator<char>>::_Vector_impl_data" = type { ptr, ptr, ptr }
%"struct.Assimp::Q3BSP::Q3BSPModel" = type { %"class.std::vector.0", %"class.std::vector.5", %"class.std::vector.10", %"class.std::vector.15", %"class.std::vector.20", %"class.std::vector.25", %"class.std::vector.30", %"class.std::vector", %"class.std::__cxx11::basic_string" }
%"class.std::vector.0" = type { %"struct.std::_Vector_base.1" }
%"struct.std::_Vector_base.1" = type { %"struct.std::_Vector_base<unsigned char, std::allocator<unsigned char>>::_Vector_impl" }
%"struct.std::_Vector_base<unsigned char, std::allocator<unsigned char>>::_Vector_impl" = type { %"struct.std::_Vector_base<unsigned char, std::allocator<unsigned char>>::_Vector_impl_data" }
%"struct.std::_Vector_base<unsigned char, std::allocator<unsigned char>>::_Vector_impl_data" = type { ptr, ptr, ptr }
%"class.std::vector.5" = type { %"struct.std::_Vector_base.6" }
%"struct.std::_Vector_base.6" = type { %"struct.std::_Vector_base<Assimp::Q3BSP::sQ3BSPLump *, std::allocator<Assimp::Q3BSP::sQ3BSPLump *>>::_Vector_impl" }
%"struct.std::_Vector_base<Assimp::Q3BSP::sQ3BSPLump *, std::allocator<Assimp::Q3BSP::sQ3BSPLump *>>::_Vector_impl" = type { %"struct.std::_Vector_base<Assimp::Q3BSP::sQ3BSPLump *, std::allocator<Assimp::Q3BSP::sQ3BSPLump *>>::_Vector_impl_data" }
%"struct.std::_Vector_base<Assimp::Q3BSP::sQ3BSPLump *, std::allocator<Assimp::Q3BSP::sQ3BSPLump *>>::_Vector_impl_data" = type { ptr, ptr, ptr }
%"class.std::vector.10" = type { %"struct.std::_Vector_base.11" }
%"struct.std::_Vector_base.11" = type { %"struct.std::_Vector_base<Assimp::Q3BSP::sQ3BSPVertex *, std::allocator<Assimp::Q3BSP::sQ3BSPVertex *>>::_Vector_impl" }
%"struct.std::_Vector_base<Assimp::Q3BSP::sQ3BSPVertex *, std::allocator<Assimp::Q3BSP::sQ3BSPVertex *>>::_Vector_impl" = type { %"struct.std::_Vector_base<Assimp::Q3BSP::sQ3BSPVertex *, std::allocator<Assimp::Q3BSP::sQ3BSPVertex *>>::_Vector_impl_data" }
%"struct.std::_Vector_base<Assimp::Q3BSP::sQ3BSPVertex *, std::allocator<Assimp::Q3BSP::sQ3BSPVertex *>>::_Vector_impl_data" = type { ptr, ptr, ptr }
%"class.std::vector.15" = type { %"struct.std::_Vector_base.16" }
%"struct.std::_Vector_base.16" = type { %"struct.std::_Vector_base<Assimp::Q3BSP::sQ3BSPFace *, std::allocator<Assimp::Q3BSP::sQ3BSPFace *>>::_Vector_impl" }
%"struct.std::_Vector_base<Assimp::Q3BSP::sQ3BSPFace *, std::allocator<Assimp::Q3BSP::sQ3BSPFace *>>::_Vector_impl" = type { %"struct.std::_Vector_base<Assimp::Q3BSP::sQ3BSPFace *, std::allocator<Assimp::Q3BSP::sQ3BSPFace *>>::_Vector_impl_data" }
%"struct.std::_Vector_base<Assimp::Q3BSP::sQ3BSPFace *, std::allocator<Assimp::Q3BSP::sQ3BSPFace *>>::_Vector_impl_data" = type { ptr, ptr, ptr }
%"class.std::vector.20" = type { %"struct.std::_Vector_base.21" }
%"struct.std::_Vector_base.21" = type { %"struct.std::_Vector_base<int, std::allocator<int>>::_Vector_impl" }
%"struct.std::_Vector_base<int, std::allocator<int>>::_Vector_impl" = type { %"struct.std::_Vector_base<int, std::allocator<int>>::_Vector_impl_data" }
%"struct.std::_Vector_base<int, std::allocator<int>>::_Vector_impl_data" = type { ptr, ptr, ptr }
%"class.std::vector.25" = type { %"struct.std::_Vector_base.26" }
%"struct.std::_Vector_base.26" = type { %"struct.std::_Vector_base<Assimp::Q3BSP::sQ3BSPTexture *, std::allocator<Assimp::Q3BSP::sQ3BSPTexture *>>::_Vector_impl" }
%"struct.std::_Vector_base<Assimp::Q3BSP::sQ3BSPTexture *, std::allocator<Assimp::Q3BSP::sQ3BSPTexture *>>::_Vector_impl" = type { %"struct.std::_Vector_base<Assimp::Q3BSP::sQ3BSPTexture *, std::allocator<Assimp::Q3BSP::sQ3BSPTexture *>>::_Vector_impl_data" }
%"struct.std::_Vector_base<Assimp::Q3BSP::sQ3BSPTexture *, std::allocator<Assimp::Q3BSP::sQ3BSPTexture *>>::_Vector_impl_data" = type { ptr, ptr, ptr }
%"class.std::vector.30" = type { %"struct.std::_Vector_base.31" }
%"struct.std::_Vector_base.31" = type { %"struct.std::_Vector_base<Assimp::Q3BSP::sQ3BSPLightmap *, std::allocator<Assimp::Q3BSP::sQ3BSPLightmap *>>::_Vector_impl" }
%"struct.std::_Vector_base<Assimp::Q3BSP::sQ3BSPLightmap *, std::allocator<Assimp::Q3BSP::sQ3BSPLightmap *>>::_Vector_impl" = type { %"struct.std::_Vector_base<Assimp::Q3BSP::sQ3BSPLightmap *, std::allocator<Assimp::Q3BSP::sQ3BSPLightmap *>>::_Vector_impl_data" }
%"struct.std::_Vector_base<Assimp::Q3BSP::sQ3BSPLightmap *, std::allocator<Assimp::Q3BSP::sQ3BSPLightmap *>>::_Vector_impl_data" = type { ptr, ptr, ptr }
%"class.std::__cxx11::basic_string" = type { %"struct.std::__cxx11::basic_string<char>::_Alloc_hider", i64, %union.anon }
%"struct.std::__cxx11::basic_string<char>::_Alloc_hider" = type { ptr }
%union.anon = type { i64, [8 x i8] }

; Function Attrs: mustprogress nounwind uwtable
define linkonce_odr hidden void @_ZNSt12_Destroy_auxILb1EE9__destroyIPPN6Assimp5Q3BSP10sQ3BSPLumpEEEvT_S7_(ptr noundef %0, ptr noundef %1) #2 comdat align 2 {
  %3 = alloca ptr, align 8
  %4 = alloca ptr, align 8
  store ptr %0, ptr %3, align 8
  store ptr %1, ptr %4, align 8
  ret void
}

; Function Attrs: inlinehint mustprogress uwtable
define linkonce_odr hidden void @_ZSt8_DestroyIPPN6Assimp5Q3BSP10sQ3BSPLumpEEvT_S5_(ptr noundef %0, ptr noundef %1) #9 comdat {
  %3 = alloca ptr, align 8
  %4 = alloca ptr, align 8
  store ptr %0, ptr %3, align 8
  store ptr %1, ptr %4, align 8
  %5 = load ptr, ptr %3, align 8
  %6 = load ptr, ptr %4, align 8
  call void @_ZNSt12_Destroy_auxILb1EE9__destroyIPPN6Assimp5Q3BSP10sQ3BSPLumpEEEvT_S7_(ptr noundef %5, ptr noundef %6)
  ret void
}

; Function Attrs: noinline noreturn nounwind uwtable
define linkonce_odr hidden void @__clang_call_terminate(ptr noundef %0) #7 comdat {
  %2 = call ptr @__cxa_begin_catch(ptr %0) #14
  call void @_ZSt9terminatev() #17
  unreachable
}

; Function Attrs: inlinehint mustprogress uwtable
define linkonce_odr hidden void @_ZSt8_DestroyIPPN6Assimp5Q3BSP10sQ3BSPLumpES3_EvT_S5_RSaIT0_E(ptr noundef %0, ptr noundef %1, ptr noundef nonnull align 1 dereferenceable(1) %2) #9 comdat {
  %4 = alloca ptr, align 8
  %5 = alloca ptr, align 8
  %6 = alloca ptr, align 8
  store ptr %0, ptr %4, align 8
  store ptr %1, ptr %5, align 8
  store ptr %2, ptr %6, align 8
  %7 = load ptr, ptr %4, align 8
  %8 = load ptr, ptr %5, align 8
  call void @_ZSt8_DestroyIPPN6Assimp5Q3BSP10sQ3BSPLumpEEvT_S5_(ptr noundef %7, ptr noundef %8)
  ret void
}

; Function Attrs: mustprogress nounwind uwtable
define linkonce_odr hidden noundef nonnull align 1 dereferenceable(1) ptr @_ZNSt12_Vector_baseIPN6Assimp5Q3BSP10sQ3BSPLumpESaIS3_EE19_M_get_Tp_allocatorEv(ptr noundef nonnull align 8 dereferenceable(24) %0) #2 comdat align 2 {
  %2 = alloca ptr, align 8
  store ptr %0, ptr %2, align 8
  %3 = load ptr, ptr %2, align 8
  %4 = getelementptr inbounds nuw %"struct.std::_Vector_base.6", ptr %3, i32 0, i32 0
  ret ptr %4
}

; Function Attrs: mustprogress nounwind uwtable
define linkonce_odr hidden void @_ZNSt6vectorIPN6Assimp5Q3BSP10sQ3BSPLumpESaIS3_EE15_M_erase_at_endEPS3_(ptr noundef nonnull align 8 dereferenceable(24) %0, ptr noundef %1) #2 comdat align 2 personality ptr @__gxx_personality_v0 {
  %3 = alloca ptr, align 8
  %4 = alloca ptr, align 8
  %5 = alloca i64, align 8
  store ptr %0, ptr %3, align 8
  store ptr %1, ptr %4, align 8
  %6 = load ptr, ptr %3, align 8
  call void @llvm.lifetime.start.p0(i64 8, ptr %5) #14
  %7 = getelementptr inbounds nuw %"struct.std::_Vector_base.6", ptr %6, i32 0, i32 0
  %8 = getelementptr inbounds nuw %"struct.std::_Vector_base<Assimp::Q3BSP::sQ3BSPLump *, std::allocator<Assimp::Q3BSP::sQ3BSPLump *>>::_Vector_impl_data", ptr %7, i32 0, i32 1
  %9 = load ptr, ptr %8, align 8
  %10 = load ptr, ptr %4, align 8
  %11 = ptrtoint ptr %9 to i64
  %12 = ptrtoint ptr %10 to i64
  %13 = sub i64 %11, %12
  %14 = sdiv exact i64 %13, 8
  store i64 %14, ptr %5, align 8
  %15 = load i64, ptr %5, align 8
  %16 = icmp ne i64 %15, 0
  br i1 %16, label %17, label %27

17:                                               ; preds = %2
  %18 = load ptr, ptr %4, align 8
  %19 = getelementptr inbounds nuw %"struct.std::_Vector_base.6", ptr %6, i32 0, i32 0
  %20 = getelementptr inbounds nuw %"struct.std::_Vector_base<Assimp::Q3BSP::sQ3BSPLump *, std::allocator<Assimp::Q3BSP::sQ3BSPLump *>>::_Vector_impl_data", ptr %19, i32 0, i32 1
  %21 = load ptr, ptr %20, align 8
  %22 = call noundef nonnull align 1 dereferenceable(1) ptr @_ZNSt12_Vector_baseIPN6Assimp5Q3BSP10sQ3BSPLumpESaIS3_EE19_M_get_Tp_allocatorEv(ptr noundef nonnull align 8 dereferenceable(24) %6) #14
  invoke void @_ZSt8_DestroyIPPN6Assimp5Q3BSP10sQ3BSPLumpES3_EvT_S5_RSaIT0_E(ptr noundef %18, ptr noundef %21, ptr noundef nonnull align 1 dereferenceable(1) %22)
          to label %23 unwind label %28

23:                                               ; preds = %17
  %24 = load ptr, ptr %4, align 8
  %25 = getelementptr inbounds nuw %"struct.std::_Vector_base.6", ptr %6, i32 0, i32 0
  %26 = getelementptr inbounds nuw %"struct.std::_Vector_base<Assimp::Q3BSP::sQ3BSPLump *, std::allocator<Assimp::Q3BSP::sQ3BSPLump *>>::_Vector_impl_data", ptr %25, i32 0, i32 1
  store ptr %24, ptr %26, align 8
  br label %27

27:                                               ; preds = %23, %2
  call void @llvm.lifetime.end.p0(i64 8, ptr %5) #14
  ret void

28:                                               ; preds = %17
  %29 = landingpad { ptr, i32 }
          catch ptr null
  %30 = extractvalue { ptr, i32 } %29, 0
  call void @__clang_call_terminate(ptr %30) #17
  unreachable
}

; Function Attrs: mustprogress nounwind uwtable
define linkonce_odr hidden noundef i64 @_ZNKSt6vectorIPN6Assimp5Q3BSP10sQ3BSPLumpESaIS3_EE4sizeEv(ptr noundef nonnull align 8 dereferenceable(24) %0) #2 comdat align 2 {
  %2 = alloca ptr, align 8
  store ptr %0, ptr %2, align 8
  %3 = load ptr, ptr %2, align 8
  %4 = getelementptr inbounds nuw %"struct.std::_Vector_base.6", ptr %3, i32 0, i32 0
  %5 = getelementptr inbounds nuw %"struct.std::_Vector_base<Assimp::Q3BSP::sQ3BSPLump *, std::allocator<Assimp::Q3BSP::sQ3BSPLump *>>::_Vector_impl_data", ptr %4, i32 0, i32 1
  %6 = load ptr, ptr %5, align 8
  %7 = getelementptr inbounds nuw %"struct.std::_Vector_base.6", ptr %3, i32 0, i32 0
  %8 = getelementptr inbounds nuw %"struct.std::_Vector_base<Assimp::Q3BSP::sQ3BSPLump *, std::allocator<Assimp::Q3BSP::sQ3BSPLump *>>::_Vector_impl_data", ptr %7, i32 0, i32 0
  %9 = load ptr, ptr %8, align 8
  %10 = ptrtoint ptr %6 to i64
  %11 = ptrtoint ptr %9 to i64
  %12 = sub i64 %10, %11
  %13 = sdiv exact i64 %12, 8
  ret i64 %13
}

; Function Attrs: mustprogress nounwind uwtable
define linkonce_odr hidden noundef nonnull align 8 dereferenceable(8) ptr @_ZNSt6vectorIPN6Assimp5Q3BSP10sQ3BSPLumpESaIS3_EEixEm(ptr noundef nonnull align 8 dereferenceable(24) %0, i64 noundef %1) #2 comdat align 2 {
  %3 = alloca ptr, align 8
  %4 = alloca i64, align 8
  store ptr %0, ptr %3, align 8
  store i64 %1, ptr %4, align 8
  %5 = load ptr, ptr %3, align 8
  %6 = getelementptr inbounds nuw %"struct.std::_Vector_base.6", ptr %5, i32 0, i32 0
  %7 = getelementptr inbounds nuw %"struct.std::_Vector_base<Assimp::Q3BSP::sQ3BSPLump *, std::allocator<Assimp::Q3BSP::sQ3BSPLump *>>::_Vector_impl_data", ptr %6, i32 0, i32 0
  %8 = load ptr, ptr %7, align 8
  %9 = load i64, ptr %4, align 8
  %10 = getelementptr inbounds nuw ptr, ptr %8, i64 %9
  ret ptr %10
}

; Function Attrs: mustprogress nounwind uwtable
define linkonce_odr noundef nonnull align 1 dereferenceable(1) ptr @_ZNSt6vectorIcSaIcEEixEm(ptr noundef nonnull align 8 dereferenceable(24) %0, i64 noundef %1) #2 comdat align 2 {
  %3 = alloca ptr, align 8
  %4 = alloca i64, align 8
  store ptr %0, ptr %3, align 8
  store i64 %1, ptr %4, align 8
  %5 = load ptr, ptr %3, align 8
  %6 = getelementptr inbounds nuw %"struct.std::_Vector_base", ptr %5, i32 0, i32 0
  %7 = getelementptr inbounds nuw %"struct.std::_Vector_base<char, std::allocator<char>>::_Vector_impl_data", ptr %6, i32 0, i32 0
  %8 = load ptr, ptr %7, align 8
  %9 = load i64, ptr %4, align 8
  %10 = getelementptr inbounds nuw i8, ptr %8, i64 %9
  ret ptr %10
}

; Function Attrs: mustprogress uwtable
define linkonce_odr hidden void @_ZNSt6vectorIPN6Assimp5Q3BSP10sQ3BSPLumpESaIS3_EE6resizeEm(ptr noundef nonnull align 8 dereferenceable(24) %0, i64 noundef %1) #0 comdat align 2 {
  %3 = alloca ptr, align 8
  %4 = alloca i64, align 8
  store ptr %0, ptr %3, align 8
  store i64 %1, ptr %4, align 8
  %5 = load ptr, ptr %3, align 8
  %6 = load i64, ptr %4, align 8
  %7 = call noundef i64 @_ZNKSt6vectorIPN6Assimp5Q3BSP10sQ3BSPLumpESaIS3_EE4sizeEv(ptr noundef nonnull align 8 dereferenceable(24) %5) #14
  %8 = icmp ugt i64 %6, %7
  br i1 %8, label %9, label %13

9:                                                ; preds = %2
  %10 = load i64, ptr %4, align 8
  %11 = call noundef i64 @_ZNKSt6vectorIPN6Assimp5Q3BSP10sQ3BSPLumpESaIS3_EE4sizeEv(ptr noundef nonnull align 8 dereferenceable(24) %5) #14
  %12 = sub i64 %10, %11
  call void @_ZNSt6vectorIPN6Assimp5Q3BSP10sQ3BSPLumpESaIS3_EE17_M_default_appendEm(ptr noundef nonnull align 8 dereferenceable(24) %5, i64 noundef %12)
  br label %24

13:                                               ; preds = %2
  %14 = load i64, ptr %4, align 8
  %15 = call noundef i64 @_ZNKSt6vectorIPN6Assimp5Q3BSP10sQ3BSPLumpESaIS3_EE4sizeEv(ptr noundef nonnull align 8 dereferenceable(24) %5) #14
  %16 = icmp ult i64 %14, %15
  br i1 %16, label %17, label %23

17:                                               ; preds = %13
  %18 = getelementptr inbounds nuw %"struct.std::_Vector_base.6", ptr %5, i32 0, i32 0
  %19 = getelementptr inbounds nuw %"struct.std::_Vector_base<Assimp::Q3BSP::sQ3BSPLump *, std::allocator<Assimp::Q3BSP::sQ3BSPLump *>>::_Vector_impl_data", ptr %18, i32 0, i32 0
  %20 = load ptr, ptr %19, align 8
  %21 = load i64, ptr %4, align 8
  %22 = getelementptr inbounds nuw ptr, ptr %20, i64 %21
  call void @_ZNSt6vectorIPN6Assimp5Q3BSP10sQ3BSPLumpESaIS3_EE15_M_erase_at_endEPS3_(ptr noundef nonnull align 8 dereferenceable(24) %5, ptr noundef %22) #14
  br label %23

23:                                               ; preds = %17, %13
  br label %24

24:                                               ; preds = %23, %9
  ret void
}

; Function Attrs: mustprogress uwtable
define hidden void @_ZN6Assimp15Q3BSPFileParser8getLumpsEv(ptr noundef nonnull align 8 dereferenceable(48) %0) #0 align 2 {
  %2 = alloca ptr, align 8
  %3 = alloca i64, align 8
  %4 = alloca i64, align 8
  %5 = alloca ptr, align 8
  store ptr %0, ptr %2, align 8
  %6 = load ptr, ptr %2, align 8
  call void @llvm.lifetime.start.p0(i64 8, ptr %3) #14
  %7 = getelementptr inbounds nuw %"class.Assimp::Q3BSPFileParser", ptr %6, i32 0, i32 0
  %8 = load i64, ptr %7, align 8
  store i64 %8, ptr %3, align 8
  %9 = getelementptr inbounds nuw %"class.Assimp::Q3BSPFileParser", ptr %6, i32 0, i32 2
  %10 = load ptr, ptr %9, align 8
  %11 = getelementptr inbounds nuw %"struct.Assimp::Q3BSP::Q3BSPModel", ptr %10, i32 0, i32 1
  call void @_ZNSt6vectorIPN6Assimp5Q3BSP10sQ3BSPLumpESaIS3_EE6resizeEm(ptr noundef nonnull align 8 dereferenceable(24) %11, i64 noundef 17)
  call void @llvm.lifetime.start.p0(i64 8, ptr %4) #14
  store i64 0, ptr %4, align 8
  br label %12

12:                                               ; preds = %30, %1
  %13 = load i64, ptr %4, align 8
  %14 = icmp ult i64 %13, 17
  br i1 %14, label %16, label %15

15:                                               ; preds = %12
  call void @llvm.lifetime.end.p0(i64 8, ptr %4) #14
  br label %33

16:                                               ; preds = %12
  call void @llvm.lifetime.start.p0(i64 8, ptr %5) #14
  %17 = call noalias noundef nonnull ptr @_Znwm(i64 noundef 8) #15
  store ptr %17, ptr %5, align 8
  %18 = load ptr, ptr %5, align 8
  %19 = getelementptr inbounds nuw %"class.Assimp::Q3BSPFileParser", ptr %6, i32 0, i32 1
  %20 = load i64, ptr %3, align 8
  %21 = call noundef nonnull align 1 dereferenceable(1) ptr @_ZNSt6vectorIcSaIcEEixEm(ptr noundef nonnull align 8 dereferenceable(24) %19, i64 noundef %20) #14
  call void @llvm.memcpy.p0.p0.i64(ptr align 4 %18, ptr align 1 %21, i64 8, i1 false)
  %22 = load i64, ptr %3, align 8
  %23 = add i64 %22, 8
  store i64 %23, ptr %3, align 8
  %24 = load ptr, ptr %5, align 8
  %25 = getelementptr inbounds nuw %"class.Assimp::Q3BSPFileParser", ptr %6, i32 0, i32 2
  %26 = load ptr, ptr %25, align 8
  %27 = getelementptr inbounds nuw %"struct.Assimp::Q3BSP::Q3BSPModel", ptr %26, i32 0, i32 1
  %28 = load i64, ptr %4, align 8
  %29 = call noundef nonnull align 8 dereferenceable(8) ptr @_ZNSt6vectorIPN6Assimp5Q3BSP10sQ3BSPLumpESaIS3_EEixEm(ptr noundef nonnull align 8 dereferenceable(24) %27, i64 noundef %28) #14
  store ptr %24, ptr %29, align 8
  call void @llvm.lifetime.end.p0(i64 8, ptr %5) #14
  br label %30

30:                                               ; preds = %16
  %31 = load i64, ptr %4, align 8
  %32 = add i64 %31, 1
  store i64 %32, ptr %4, align 8
  br label %12, !llvm.loop !9

33:                                               ; preds = %15
  call void @llvm.lifetime.end.p0(i64 8, ptr %3) #14
  ret void
}