; Function Attrs: mustprogress uwtable
define hidden void @_ZN6Assimp15Q3BSPFileParser8getLumpsEv(ptr noundef nonnull readonly align 8 captures(none) dereferenceable(48) %0) local_unnamed_addr #0 align 2 personality ptr @__gxx_personality_v0 {
  %2 = load i64, ptr %0, align 8
  %3 = getelementptr inbounds nuw i8, ptr %0, i64 32
  %4 = load ptr, ptr %3, align 8
  %5 = getelementptr inbounds nuw i8, ptr %4, i64 24
  %6 = getelementptr inbounds nuw i8, ptr %4, i64 32
  %7 = load ptr, ptr %6, align 8
  %8 = load ptr, ptr %5, align 8
  %9 = ptrtoint ptr %7 to i64
  %10 = ptrtoint ptr %8 to i64
  %11 = sub i64 %9, %10
  %12 = ashr exact i64 %11, 3
  %13 = icmp ult i64 %12, 17
  br i1 %13, label %14, label %16

14:                                               ; preds = %1
  %15 = sub nuw nsw i64 17, %12
  tail call void @_ZNSt6vectorIPN6Assimp5Q3BSP10sQ3BSPLumpESaIS3_EE17_M_default_appendEm(ptr noundef nonnull align 8 dereferenceable(24) %5, i64 noundef %15)
  br label %_ZNSt6vectorIPN6Assimp5Q3BSP10sQ3BSPLumpESaIS3_EE6resizeEm.exit

16:                                               ; preds = %1
  %.not = icmp eq i64 %11, 136
  br i1 %.not, label %_ZNSt6vectorIPN6Assimp5Q3BSP10sQ3BSPLumpESaIS3_EE6resizeEm.exit, label %17

17:                                               ; preds = %16
  %18 = getelementptr inbounds nuw i8, ptr %8, i64 136
  %.not.i.i = icmp eq ptr %7, %18
  br i1 %.not.i.i, label %_ZNSt6vectorIPN6Assimp5Q3BSP10sQ3BSPLumpESaIS3_EE6resizeEm.exit, label %19

19:                                               ; preds = %17
  store ptr %18, ptr %6, align 8
  br label %_ZNSt6vectorIPN6Assimp5Q3BSP10sQ3BSPLumpESaIS3_EE6resizeEm.exit

_ZNSt6vectorIPN6Assimp5Q3BSP10sQ3BSPLumpESaIS3_EE6resizeEm.exit: ; preds = %14, %16, %17, %19
  %20 = getelementptr inbounds nuw i8, ptr %0, i64 8
  br label %22

21:                                               ; preds = %22
  ret void

22:                                               ; preds = %_ZNSt6vectorIPN6Assimp5Q3BSP10sQ3BSPLumpESaIS3_EE6resizeEm.exit, %22
  %.09 = phi i64 [ %2, %_ZNSt6vectorIPN6Assimp5Q3BSP10sQ3BSPLumpESaIS3_EE6resizeEm.exit ], [ %27, %22 ]
  %.078 = phi i64 [ 0, %_ZNSt6vectorIPN6Assimp5Q3BSP10sQ3BSPLumpESaIS3_EE6resizeEm.exit ], [ %32, %22 ]
  %23 = tail call noalias noundef nonnull dereferenceable(8) ptr @_Znwm(i64 noundef 8) #13
  %24 = load ptr, ptr %20, align 8
  %25 = getelementptr inbounds nuw i8, ptr %24, i64 %.09
  %26 = load i64, ptr %25, align 1
  store i64 %26, ptr %23, align 4
  %27 = add i64 %.09, 8
  %28 = load ptr, ptr %3, align 8
  %29 = getelementptr inbounds nuw i8, ptr %28, i64 24
  %30 = load ptr, ptr %29, align 8
  %31 = getelementptr inbounds nuw ptr, ptr %30, i64 %.078
  store ptr %23, ptr %31, align 8
  %32 = add nuw nsw i64 %.078, 1
  %exitcond.not = icmp eq i64 %32, 17
  br i1 %exitcond.not, label %21, label %22, !llvm.loop !3
}